target datalayout = "e-m:e-p270:32:32-p271:32:32-p272:64:64-i64:64-i128:128-f80:128-n8:16:32:64-S128"
target triple = "x86_64-pc-linux-gnu"

%"class.icu_77::SimpleFilteredSentenceBreakIterator" = type { %"class.icu_77::BreakIterator", ptr, %"class.icu_77::LocalPointer.0", %"class.icu_77::internal::LocalOpenPointer" }
%"class.icu_77::BreakIterator" = type { %"class.icu_77::UObject", ptr, ptr, ptr }
%"class.icu_77::UObject" = type { ptr }
%"class.icu_77::LocalPointer.0" = type { %"class.icu_77::LocalPointerBase.1" }
%"class.icu_77::LocalPointerBase.1" = type { ptr }
%"class.icu_77::internal::LocalOpenPointer" = type { %"class.icu_77::LocalPointerBase.2" }
%"class.icu_77::LocalPointerBase.2" = type { ptr }

; Function Attrs: mustprogress nounwind uwtable
define linkonce_odr noundef ptr @_ZNK6icu_7716LocalPointerBaseINS_13BreakIteratorEEptEv(ptr noundef nonnull align 8 dereferenceable(8) %0) #1 comdat align 2 {
  %2 = alloca ptr, align 8
  store ptr %0, ptr %2, align 8, !tbaa !30
  %3 = load ptr, ptr %2, align 8
  %4 = getelementptr inbounds nuw %"class.icu_77::LocalPointerBase.1", ptr %3, i32 0, i32 0
  %5 = load ptr, ptr %4, align 8, !tbaa !32
  ret ptr %5
}

; Function Attrs: mustprogress uwtable
define noundef i32 @_ZN6icu_7735SimpleFilteredSentenceBreakIterator4lastEv(ptr noundef nonnull align 8 dereferenceable(56) %0) unnamed_addr #2 align 2 {
  %2 = alloca ptr, align 8
  store ptr %0, ptr %2, align 8, !tbaa !17
  %3 = load ptr, ptr %2, align 8
  %4 = getelementptr inbounds nuw %"class.icu_77::SimpleFilteredSentenceBreakIterator", ptr %3, i32 0, i32 2
  %5 = call noundef ptr @_ZNK6icu_7716LocalPointerBaseINS_13BreakIteratorEEptEv(ptr noundef nonnull align 8 dereferenceable(8) %4)
  %6 = load ptr, ptr %5, align 8, !tbaa !10
  %7 = getelementptr inbounds ptr, ptr %6, i64 11
  %8 = load ptr, ptr %7, align 8
  %9 = call noundef i32 %8(ptr noundef nonnull align 8 dereferenceable(32) %5)
  ret i32 %9
}